(dp1
S'output'
p2
S''
sS'layer'
p3
S'/home/tiago/listool/applications/listool/controllers/default.py'
p4
sS'code'
p5
S'# -*- coding: utf-8 -*-\n# this file is released under public domain and you can use without limitations\n\n#########################################################################\n## This is a samples controller\n## - index is the default action of any application\n## - user is required for authentication and authorization\n## - download is for downloading files uploaded in the db (does streaming)\n## - call exposes all registered services (none by default)\n#########################################################################\n\ndef index():\n    """\n    example action using the internationalization operator T and flash\n    rendered by views/default/index.html or views/generic.html\n    """\n    response.flash = T(\'You are successfully running web2py.\')\n    a = get_courses()\n\t\tb = get_people(\'A\', a[0])\n    return b\n\ndef user():\n    """\n    exposes:\n    http://..../[app]/default/user/login\n    http://..../[app]/default/user/logout\n    http://..../[app]/default/user/register\n    http://..../[app]/default/user/profile\n    http://..../[app]/default/user/retrieve_password\n    http://..../[app]/default/user/change_password\n    use @auth.requires_login()\n        @auth.requires_membership(\'group name\')\n        @auth.requires_permission(\'read\',\'table name\',record_id)\n    to decorate functions that need access control\n    """\n    return dict(form=auth())\n\n\ndef download():\n    """\n    allows downloading of uploaded files\n    http://..../[app]/default/download/[filename]\n    """\n    return response.download(request,db)\n\n\ndef call():\n    """\n    exposes services. for example:\n    http://..../[app]/default/call/jsonrpc\n    decorate with @services.jsonrpc the functions to expose\n    supports xml, json, xmlrpc, jsonrpc, amfrpc, rss, csv\n    """\n    session.forget()\n    return service()\n\n\n\nresponse._vars=response._caller(index)\n'
p6
sS'snapshot'
p7
(dp8
S'exception'
p9
(dp10
S'__getslice__'
p11
S"<method-wrapper '__getslice__' of exceptions.IndentationError object at 0x3a1b2a8>"
p12
sS'text'
p13
S'"\\t\\tb = get_people(\'A\', a[0])\\n"'
p14
sS'__str__'
p15
S"<method-wrapper '__str__' of exceptions.IndentationError object at 0x3a1b2a8>"
p16
sS'__reduce__'
p17
S'<built-in method __reduce__ of exceptions.IndentationError object at 0x3a1b2a8>'
p18
sS'__dict__'
p19
S'{}'
p20
sS'__sizeof__'
p21
S'<built-in method __sizeof__ of exceptions.IndentationError object at 0x3a1b2a8>'
p22
sS'__init__'
p23
S"<method-wrapper '__init__' of exceptions.IndentationError object at 0x3a1b2a8>"
p24
sS'__setattr__'
p25
S"<method-wrapper '__setattr__' of exceptions.IndentationError object at 0x3a1b2a8>"
p26
sS'__reduce_ex__'
p27
S'<built-in method __reduce_ex__ of exceptions.IndentationError object at 0x3a1b2a8>'
p28
sS'__new__'
p29
S'<built-in method __new__ of type object at 0x812600>'
p30
sS'__format__'
p31
S'<built-in method __format__ of exceptions.IndentationError object at 0x3a1b2a8>'
p32
sS'__class__'
p33
S"<type 'exceptions.IndentationError'>"
p34
sS'filename'
p35
S"'/home/tiago/listool/applications/listool/controllers/default.py'"
p36
sS'lineno'
p37
S'19'
p38
sS'msg'
p39
S"'unexpected indent'"
p40
sS'__doc__'
p41
S"'Improper indentation.'"
p42
sS'__getitem__'
p43
S"<method-wrapper '__getitem__' of exceptions.IndentationError object at 0x3a1b2a8>"
p44
sS'__setstate__'
p45
S'<built-in method __setstate__ of exceptions.IndentationError object at 0x3a1b2a8>'
p46
sS'__getattribute__'
p47
S"<method-wrapper '__getattribute__' of exceptions.IndentationError object at 0x3a1b2a8>"
p48
sS'print_file_and_line'
p49
S'None'
p50
sS'args'
p51
S'(\'unexpected indent\', (\'/home/tiago/listool/applications/listool/controllers/default.py\', 19, 2, "\\t\\tb = get_people(\'A\', a[0])\\n"))'
p52
sS'__subclasshook__'
p53
S'<built-in method __subclasshook__ of type object at 0x812600>'
p54
sS'offset'
p55
S'2'
sS'__unicode__'
p56
S'<built-in method __unicode__ of exceptions.IndentationError object at 0x3a1b2a8>'
p57
sS'__delattr__'
p58
S"<method-wrapper '__delattr__' of exceptions.IndentationError object at 0x3a1b2a8>"
p59
sS'__repr__'
p60
S"<method-wrapper '__repr__' of exceptions.IndentationError object at 0x3a1b2a8>"
p61
sS'__hash__'
p62
S"<method-wrapper '__hash__' of exceptions.IndentationError object at 0x3a1b2a8>"
p63
ssS'evalue'
p64
S'unexpected indent (default.py, line 19)'
p65
sS'request'
p66
(dp67
S'function'
p68
S"'index'"
p69
sS'body'
p70
S'<cStringIO.StringO object at 0x2ea25a8>'
p71
sS'wsgi'
p72
S"<Storage {'start_response': <function <lambda> a...PT_ENCODING': 'gzip,deflate', 'PATH_INFO': '/'}}>"
p73
sS'extension'
p74
S"'html'"
p75
sS'vars'
p76
S'<Storage {}>'
p77
sS'cid'
p78
S'None'
p79
sS'url'
p80
S'<gluon.html.XML object at 0x2f246d0>'
p81
sS'raw_extension'
p82
S'None'
p83
sg51
S'[]'
p84
sS'controller'
p85
S"'default'"
p86
sS'cookies'
p87
S"<SimpleCookie: session_id_admin='127.0.0.1-56374...'127.0.0.1-85236b73-2b05-49ad-a389-694587ea94e2'>"
p88
sS'application'
p89
S"'listool'"
p90
sS'ajax'
p91
S'False'
p92
sS'client'
p93
S"'127.0.0.1'"
p94
sS'env'
p95
S"<Storage {'wsgi_multithread': True, 'http_accept...False, 'remote_port': '38516', 'path_info': '/'}>"
p96
sS'raw_args'
p97
S'None'
p98
sS'get_vars'
p99
S'<Storage {}>'
p100
sS'folder'
p101
S"'/home/tiago/listool/applications/listool/'"
p102
sS'now'
p103
S'datetime.datetime(2011, 1, 21, 14, 48, 59, 834044)'
p104
sS'post_vars'
p105
S'<Storage {}>'
p106
ssS'frames'
p107
(lp108
(dp109
S'file'
p110
S'/home/tiago/listool/gluon/restricted.py'
p111
sS'dump'
p112
(dp113
S'code'
p114
S"'# -*- coding: utf-8 -*-\\n# this file is released ...vice()\\n\\n\\n\\nresponse._vars=response._caller(index)\\n'"
p115
sS'layer'
p116
S"'/home/tiago/listool/applications/listool/controllers/default.py'"
p117
sS'global compile2'
p118
S'<function compile2 at 0x2b8cf50>'
p119
sS'ccode'
p120
S'undefined'
p121
ssS'lnum'
p122
I186
sS'lines'
p123
(dp124
I181
S''
sI182
S'    try:'
p125
sI183
S'        if type(code) == types.CodeType:'
p126
sI184
S'            ccode = code'
p127
sI185
S'        else:'
p128
sI186
S'            ccode = compile2(code,layer)'
p129
sI187
S''
sI188
S'        exec ccode in environment'
p130
sI189
S'    except HTTP:'
p131
sI190
S'        raise'
p132
ssS'call'
p133
S"(code='# -*- coding: utf-8 -*-\\n# this file is released ...vice()\\n\\n\\n\\nresponse._vars=response._caller(index)\\n', environment={'A': <class 'gluon.html.A'>, 'Auth': <class 'gluon.tools.Auth'>, 'B': <class 'gluon.html.B'>, 'BEAUTIFY': <class 'gluon.html.BEAUTIFY'>, 'BODY': <class 'gluon.html.BODY'>, 'BR': <class 'gluon.html.BR'>, 'CENTER': <class 'gluon.html.CENTER'>, 'CLEANUP': <class 'gluon.validators.CLEANUP'>, 'CODE': <class 'gluon.html.CODE'>, 'CRYPT': <class 'gluon.validators.CRYPT'>, ...}, layer='/home/tiago/listool/applications/listool/controllers/default.py')"
p134
sS'func'
p135
S'restricted'
p136
sa(dp137
g110
S'/home/tiago/listool/gluon/restricted.py'
p138
sg112
(dp139
S'builtincompile'
p140
S'<built-in function compile>'
p141
sS'code'
p142
S"'# -*- coding: utf-8 -*-\\n# this file is released ...vice()\\n\\n\\n\\nresponse._vars=response._caller(index)\\n'"
p143
sS'code.rstrip'
p144
S'<built-in method rstrip of str object at 0x2f6a260>'
p145
sS').replace'
p146
g121
sS'layer'
p147
S"'/home/tiago/listool/applications/listool/controllers/default.py'"
p148
ssg122
I173
sg123
(dp149
I168
S''
sI169
S'def compile2(code,layer):'
p150
sI170
S'    """'
p151
sI171
S"    The +'\\n' is necessary else compile fails when code ends in a comment."
p152
sI172
S'    """'
p153
sI173
S"    return compile(code.rstrip().replace('\\r\\n','\\n')+'\\n', layer, 'exec')"
p154
sI174
S''
sI175
S"def restricted(code, environment={}, layer='Unknown'):"
p155
sI176
S'    """'
p156
sI177
S'    runs code in environment and returns the output. if an exception occurs'
p157
ssg133
S"(code='# -*- coding: utf-8 -*-\\n# this file is released ...vice()\\n\\n\\n\\nresponse._vars=response._caller(index)\\n', layer='/home/tiago/listool/applications/listool/controllers/default.py')"
p158
sg135
S'compile2'
p159
sasS'pyver'
p160
S'Python 2.6.4: /usr/bin/python'
p161
sS'session'
p162
(dp163
S'auth'
p164
S'None'
p165
ssS'etype'
p166
S"<type 'exceptions.IndentationError'>"
p167
sS'date'
p168
S'Fri Jan 21 14:48:59 2011'
p169
sS'response'
p170
(dp171
S'status'
p172
S'200'
p173
sg70
S'<cStringIO.StringO object at 0x3a2bb90>'
p174
sg87
S"<SimpleCookie: session_id_listool='127.0.0.1-85236b73-2b05-49ad-a389-694587ea94e2'>"
p175
sS'_vars'
p176
S'None'
p177
sS'title'
p178
S"'listool'"
p179
sS'session_file'
p180
S"<open file '/home/tiago/listool/applications/lis...49ad-a389-694587ea94e2', mode 'rb+' at 0x2f03828>"
p181
sS'flash'
p182
S"''"
p183
sS'_custom_rollback'
p184
S'None'
p185
sS'session_id'
p186
S"'127.0.0.1-85236b73-2b05-49ad-a389-694587ea94e2'"
p187
sS'headers'
p188
S"<Storage {'Expires': 'Fri, 21 Jan 2011 16:48:59 ...he, must-revalidate, post-check=0, pre-check=0'}>"
p189
sS'meta'
p190
S"<Storage {'keywords': 'web2py, python, framework... 'Web2py Enterprise Framework', 'author': 'you'}>"
p191
sS'session_filename'
p192
S"'/home/tiago/listool/applications/listool/sessions/127.0.0.1-85236b73-2b05-49ad-a389-694587ea94e2'"
p193
sS'postprocessing'
p194
S'[]'
p195
sS'menu'
p196
S"[(<lazyT 'Home'>, False, <gluon.html.XML object at 0x3a28950>, []), (<lazyT 'This App'>, False, <gluon.html.XML object at 0x3a28850>, [(<lazyT 'Controller'>, False, <gluon.html.XML object at 0x3a288d0>), (<lazyT 'View'>, False, <gluon.html.XML object at 0x3a28750>), (<lazyT 'Layout'>, False, <gluon.html.XML object at 0x3a11550>), (<lazyT 'Stylesheet'>, False, <gluon.html.XML object at 0x3a115d0>), (<lazyT 'DB Model'>, False, <gluon.html.XML object at 0x3a11650>), (<lazyT 'Menu Model'>, False, <gluon.html.XML object at 0x3a116d0>), (<lazyT 'Database'>, False, <gluon.html.XML object at 0x3a11790>), (<lazyT 'Errors'>, False, <gluon.html.XML object at 0x3a11810>), (<lazyT 'About'>, False, <gluon.html.XML object at 0x3a11890>)]), (<lazyT 'Resources'>, False, None, [(<lazyT 'Documentation'>, False, 'http://www.web2py.com/book', [(<lazyT 'Preface'>, False, 'http://www.web2py.com/book/default/chapter/00'), (<lazyT 'Introduction'>, False, 'http://www.web2py.com/book/default/chapter/01'), (<lazyT 'Python'>, False, 'http://www.web2py.com/book/default/chapter/02'), (<lazyT 'Overview'>, False, 'http://www.web2py.com/book/default/chapter/03'), (<lazyT 'The Core'>, False, 'http://www.web2py.com/book/default/chapter/04'), (<lazyT 'The Views'>, False, 'http://www.web2py.com/book/default/chapter/05'), (<lazyT 'Database'>, False, 'http://www.web2py.com/book/default/chapter/06'), (<lazyT 'Forms and Validators'>, False, 'http://www.web2py.com/book/default/chapter/07'), (<lazyT 'Access Control'>, False, 'http://www.web2py.com/book/default/chapter/08'), (<lazyT 'Services'>, False, 'http://www.web2py.com/book/default/chapter/09'), (<lazyT 'Ajax Recipes'>, False, 'http://www.web2py.com/book/default/chapter/10'), (<lazyT 'Deployment Recipes'>, False, 'http://www.web2py.com/book/default/chapter/11'), (<lazyT 'Other Recipes'>, False, 'http://www.web2py.com/book/default/chapter/12'), (<lazyT 'Buy this book'>, False, 'http://stores.lulu.com/web2py')]), (<lazyT 'Community'>, False, None, [(<lazyT 'Groups'>, False, 'http://www.web2py.com/examples/default/usergroups'), (<lazyT 'Twitter'>, False, 'http://twitter.com/web2py'), (<lazyT 'Live chat'>, False, 'http://mibbit.com/?channel=%23web2py&server=irc.mibbit.net'), (<lazyT 'User Voice'>, False, 'http://web2py.uservoice.com/')]), (<lazyT 'Web2py'>, False, 'http://www.web2py.com', [(<lazyT 'Download'>, False, 'http://www.web2py.com/examples/default/download'), (<lazyT 'Support'>, False, 'http://www.web2py.com/examples/default/support'), (<lazyT 'Quick Examples'>, False, 'http://web2py.com/examples/default/examples'), (<lazyT 'FAQ'>, False, 'http://web2py.com/AlterEgo'), (<lazyT 'Free Applications'>, False, 'http://web2py.com/appliances'), (<lazyT 'Plugins'>, False, 'http://web2py.com/plugins'), (<lazyT 'Recipes'>, False, 'http://web2pyslices.com/'), (<lazyT 'Demo'>, False, 'http://web2py.com/demo_admin'), (<lazyT 'Semantic'>, False, 'http://web2py.com/semantic'), (<lazyT 'Layouts'>, False, 'http://web2py.com/layouts'), (<lazyT 'Videos'>, False, 'http://www.web2py.com/examples/default/videos/')])])]"
p197
sS'_view_environment'
p198
S"{'A': <class 'gluon.html.A'>, 'Auth': <class 'gluon.tools.Auth'>, 'B': <class 'gluon.html.B'>, 'BEAUTIFY': <class 'gluon.html.BEAUTIFY'>, 'BODY': <class 'gluon.html.BODY'>, 'BR': <class 'gluon.html.BR'>, 'CENTER': <class 'gluon.html.CENTER'>, 'CLEANUP': <class 'gluon.validators.CLEANUP'>, 'CODE': <class 'gluon.html.CODE'>, 'CRYPT': <class 'gluon.validators.CRYPT'>, ...}"
p199
sS'subtitle'
p200
S"<lazyT 'customize me!'>"
p201
sS'session_id_name'
p202
S"'session_id_listool'"
p203
sS'_custom_commit'
p204
S'None'
p205
sS'_caller'
p206
S'<function <lambda> at 0x3a0b140>'
p207
sS'files'
p208
S'[]'
p209
sS'view'
p210
S"'default/index.html'"
p211
ssS'locals'
p212
(dp213
g3
S"'/home/tiago/listool/applications/listool/controllers/default.py'"
p214
sg5
S"'# -*- coding: utf-8 -*-\\n# this file is released ...vice()\\n\\n\\n\\nresponse._vars=response._caller(index)\\n'"
p215
sssS'traceback'
p216
S'Traceback (most recent call last):\n  File "/home/tiago/listool/gluon/restricted.py", line 186, in restricted\n    ccode = compile2(code,layer)\n  File "/home/tiago/listool/gluon/restricted.py", line 173, in compile2\n    return compile(code.rstrip().replace(\'\\r\\n\',\'\\n\')+\'\\n\', layer, \'exec\')\n  File "/home/tiago/listool/applications/listool/controllers/default.py", line 19\n    b = get_people(\'A\', a[0])\n   ^\nIndentationError: unexpected indent\n'
p217
s.